target datalayout = "e-m:e-p270:32:32-p271:32:32-p272:64:64-i64:64-i128:128-f80:128-n8:16:32:64-S128"
target triple = "x86_64-pc-linux-gnu"

@.str.208 = private unnamed_addr constant [45 x i8] c"asn1_getnum: expecting digits, found '%c%c'\0A\00", align 1

; Function Attrs: nounwind uwtable
define internal i32 @asn1_getnum(ptr noundef %0) #0 {
  %2 = alloca i32, align 4
  %3 = alloca ptr, align 8
  store ptr %0, ptr %3, align 8, !tbaa !66
  %4 = load ptr, ptr %3, align 8, !tbaa !66
  %5 = getelementptr inbounds i8, ptr %4, i64 0
  %6 = load i8, ptr %5, align 1, !tbaa !22
  %7 = sext i8 %6 to i32
  %8 = icmp slt i32 %7, 48
  br i1 %8, label %27, label %9

9:                                                ; preds = %1
  %10 = load ptr, ptr %3, align 8, !tbaa !66
  %11 = getelementptr inbounds i8, ptr %10, i64 0
  %12 = load i8, ptr %11, align 1, !tbaa !22
  %13 = sext i8 %12 to i32
  %14 = icmp sgt i32 %13, 57
  br i1 %14, label %27, label %15

15:                                               ; preds = %9
  %16 = load ptr, ptr %3, align 8, !tbaa !66
  %17 = getelementptr inbounds i8, ptr %16, i64 1
  %18 = load i8, ptr %17, align 1, !tbaa !22
  %19 = sext i8 %18 to i32
  %20 = icmp slt i32 %19, 48
  br i1 %20, label %27, label %21

21:                                               ; preds = %15
  %22 = load ptr, ptr %3, align 8, !tbaa !66
  %23 = getelementptr inbounds i8, ptr %22, i64 1
  %24 = load i8, ptr %23, align 1, !tbaa !22
  %25 = sext i8 %24 to i32
  %26 = icmp sgt i32 %25, 57
  br i1 %26, label %27, label %36

27:                                               ; preds = %21, %15, %9, %1
  %28 = load ptr, ptr %3, align 8, !tbaa !66
  %29 = getelementptr inbounds i8, ptr %28, i64 0
  %30 = load i8, ptr %29, align 1, !tbaa !22
  %31 = sext i8 %30 to i32
  %32 = load ptr, ptr %3, align 8, !tbaa !66
  %33 = getelementptr inbounds i8, ptr %32, i64 1
  %34 = load i8, ptr %33, align 1, !tbaa !22
  %35 = sext i8 %34 to i32
  call void (ptr, ...) @cli_dbgmsg(ptr noundef @.str.208, i32 noundef %31, i32 noundef %35)
  store i32 -1, ptr %2, align 4
  br label %49

36:                                               ; preds = %21
  %37 = load ptr, ptr %3, align 8, !tbaa !66
  %38 = getelementptr inbounds i8, ptr %37, i64 0
  %39 = load i8, ptr %38, align 1, !tbaa !22
  %40 = sext i8 %39 to i32
  %41 = sub nsw i32 %40, 48
  %42 = mul nsw i32 %41, 10
  %43 = load ptr, ptr %3, align 8, !tbaa !66
  %44 = getelementptr inbounds i8, ptr %43, i64 1
  %45 = load i8, ptr %44, align 1, !tbaa !22
  %46 = sext i8 %45 to i32
  %47 = sub nsw i32 %46, 48
  %48 = add nsw i32 %42, %47
  store i32 %48, ptr %2, align 4
  br label %49

49:                                               ; preds = %36, %27
  %50 = load i32, ptr %2, align 4
  ret i32 %50
}