; Function Attrs: nounwind uwtable
define internal fastcc range(i32 -1, 100) i32 @asn1_getnum(ptr noundef readonly captures(none) %0) unnamed_addr #0 {
  %2 = load i8, ptr %0, align 1, !tbaa !22
  %3 = add i8 %2, -58
  %or.cond = icmp ult i8 %3, -10
  %.phi.trans.insert = getelementptr inbounds nuw i8, ptr %0, i64 1
  %.pre = load i8, ptr %.phi.trans.insert, align 1, !tbaa !22
  %4 = add i8 %.pre, -58
  %or.cond11 = icmp ult i8 %4, -10
  %or.cond13 = select i1 %or.cond, i1 true, i1 %or.cond11
  br i1 %or.cond13, label %._crit_edge, label %7

._crit_edge:                                      ; preds = %1
  %5 = sext i8 %2 to i32
  %6 = sext i8 %.pre to i32
  tail call void (ptr, ...) @cli_dbgmsg(ptr noundef nonnull @.str.208, i32 noundef %5, i32 noundef %6) #11
  br label %12

7:                                                ; preds = %1
  %8 = mul i8 %2, 10
  %narrow12 = add nsw i8 %8, 32
  %9 = zext nneg i8 %narrow12 to i32
  %narrow10 = add nsw i8 %.pre, -48
  %10 = zext nneg i8 %narrow10 to i32
  %11 = add nuw nsw i32 %10, %9
  br label %12

12:                                               ; preds = %7, %._crit_edge
  %.0 = phi i32 [ -1, %._crit_edge ], [ %11, %7 ]
  ret i32 %.0
}